target datalayout = "e-m:e-p270:32:32-p271:32:32-p272:64:64-i64:64-i128:128-f80:128-n8:16:32:64-S128"
target triple = "x86_64-pc-linux-gnu"

%"class.llvm::pdb::NativeEnumSymbols" = type { %"class.llvm::pdb::IPDBEnumChildren", %"class.std::vector", i32, ptr }
%"class.llvm::pdb::IPDBEnumChildren" = type { ptr }
%"class.std::vector" = type { %"struct.std::_Vector_base" }
%"struct.std::_Vector_base" = type { %"struct.std::_Vector_base<unsigned int, std::allocator<unsigned int>>::_Vector_impl" }
%"struct.std::_Vector_base<unsigned int, std::allocator<unsigned int>>::_Vector_impl" = type { %"struct.std::_Vector_base<unsigned int, std::allocator<unsigned int>>::_Vector_impl_data" }
%"struct.std::_Vector_base<unsigned int, std::allocator<unsigned int>>::_Vector_impl_data" = type { ptr, ptr, ptr }
%"class.std::unique_ptr.42" = type { %"struct.std::__uniq_ptr_data.43" }
%"struct.std::__uniq_ptr_data.43" = type { %"class.std::__uniq_ptr_impl.44" }
%"class.std::__uniq_ptr_impl.44" = type { %"class.std::tuple.45" }
%"class.std::tuple.45" = type { %"struct.std::_Tuple_impl.46" }
%"struct.std::_Tuple_impl.46" = type { %"struct.std::_Head_base.49" }
%"struct.std::_Head_base.49" = type { ptr }
%"class.llvm::pdb::NativeSession" = type { %"class.llvm::pdb::IPDBSession", %"class.std::unique_ptr", %"class.std::unique_ptr.2", %"class.llvm::pdb::SymbolCache", i32, i64, %"class.llvm::RecyclingAllocator", %"class.llvm::IntervalMap" }
%"class.llvm::pdb::IPDBSession" = type { ptr }
%"class.std::unique_ptr" = type { %"struct.std::__uniq_ptr_data" }
%"struct.std::__uniq_ptr_data" = type { %"class.std::__uniq_ptr_impl" }
%"class.std::__uniq_ptr_impl" = type { %"class.std::tuple" }
%"class.std::tuple" = type { %"struct.std::_Tuple_impl" }
%"struct.std::_Tuple_impl" = type { %"struct.std::_Head_base.1" }
%"struct.std::_Head_base.1" = type { ptr }
%"class.std::unique_ptr.2" = type { %"struct.std::__uniq_ptr_data.3" }
%"struct.std::__uniq_ptr_data.3" = type { %"class.std::__uniq_ptr_impl.4" }
%"class.std::__uniq_ptr_impl.4" = type { %"class.std::tuple.5" }
%"class.std::tuple.5" = type { %"struct.std::_Tuple_impl.6" }
%"struct.std::_Tuple_impl.6" = type { %"struct.std::_Head_base.9" }
%"struct.std::_Head_base.9" = type { ptr }
%"class.llvm::pdb::SymbolCache" = type { ptr, ptr, %"class.std::vector.10", %"class.llvm::DenseMap", %"class.llvm::DenseMap.15", %"class.std::vector", %"class.std::vector.18", %"class.llvm::DenseMap.23", %"class.llvm::DenseMap.23", %"class.llvm::DenseMap.26", %"class.llvm::DenseMap.26", %"class.llvm::DenseMap.29", %"class.llvm::DenseMap.32" }
%"class.std::vector.10" = type { %"struct.std::_Vector_base.11" }
%"struct.std::_Vector_base.11" = type { %"struct.std::_Vector_base<std::unique_ptr<llvm::pdb::NativeRawSymbol>, std::allocator<std::unique_ptr<llvm::pdb::NativeRawSymbol>>>::_Vector_impl" }
%"struct.std::_Vector_base<std::unique_ptr<llvm::pdb::NativeRawSymbol>, std::allocator<std::unique_ptr<llvm::pdb::NativeRawSymbol>>>::_Vector_impl" = type { %"struct.std::_Vector_base<std::unique_ptr<llvm::pdb::NativeRawSymbol>, std::allocator<std::unique_ptr<llvm::pdb::NativeRawSymbol>>>::_Vector_impl_data" }
%"struct.std::_Vector_base<std::unique_ptr<llvm::pdb::NativeRawSymbol>, std::allocator<std::unique_ptr<llvm::pdb::NativeRawSymbol>>>::_Vector_impl_data" = type { ptr, ptr, ptr }
%"class.llvm::DenseMap" = type <{ ptr, i32, i32, i32, [4 x i8] }>
%"class.llvm::DenseMap.15" = type <{ ptr, i32, i32, i32, [4 x i8] }>
%"class.std::vector.18" = type { %"struct.std::_Vector_base.19" }
%"struct.std::_Vector_base.19" = type { %"struct.std::_Vector_base<std::unique_ptr<llvm::pdb::NativeSourceFile>, std::allocator<std::unique_ptr<llvm::pdb::NativeSourceFile>>>::_Vector_impl" }
%"struct.std::_Vector_base<std::unique_ptr<llvm::pdb::NativeSourceFile>, std::allocator<std::unique_ptr<llvm::pdb::NativeSourceFile>>>::_Vector_impl" = type { %"struct.std::_Vector_base<std::unique_ptr<llvm::pdb::NativeSourceFile>, std::allocator<std::unique_ptr<llvm::pdb::NativeSourceFile>>>::_Vector_impl_data" }
%"struct.std::_Vector_base<std::unique_ptr<llvm::pdb::NativeSourceFile>, std::allocator<std::unique_ptr<llvm::pdb::NativeSourceFile>>>::_Vector_impl_data" = type { ptr, ptr, ptr }
%"class.llvm::DenseMap.23" = type <{ ptr, i32, i32, i32, [4 x i8] }>
%"class.llvm::DenseMap.26" = type <{ ptr, i32, i32, i32, [4 x i8] }>
%"class.llvm::DenseMap.29" = type <{ ptr, i32, i32, i32, [4 x i8] }>
%"class.llvm::DenseMap.32" = type <{ ptr, i32, i32, i32, [4 x i8] }>
%"class.llvm::RecyclingAllocator" = type { %"class.llvm::Recycler", %"class.llvm::BumpPtrAllocatorImpl" }
%"class.llvm::Recycler" = type { ptr }
%"class.llvm::BumpPtrAllocatorImpl" = type { ptr, ptr, %"class.llvm::SmallVector", %"class.llvm::SmallVector.36", i64, i64 }
%"class.llvm::SmallVector" = type { %"class.llvm::SmallVectorImpl", %"struct.llvm::SmallVectorStorage" }
%"class.llvm::SmallVectorImpl" = type { %"class.llvm::SmallVectorTemplateBase" }
%"class.llvm::SmallVectorTemplateBase" = type { %"class.llvm::SmallVectorTemplateCommon" }
%"class.llvm::SmallVectorTemplateCommon" = type { %"class.llvm::SmallVectorBase" }
%"class.llvm::SmallVectorBase" = type { ptr, i32, i32 }
%"struct.llvm::SmallVectorStorage" = type { [32 x i8] }
%"class.llvm::SmallVector.36" = type { %"class.llvm::SmallVectorImpl.37" }
%"class.llvm::SmallVectorImpl.37" = type { %"class.llvm::SmallVectorTemplateBase.38" }
%"class.llvm::SmallVectorTemplateBase.38" = type { %"class.llvm::SmallVectorTemplateCommon.39" }
%"class.llvm::SmallVectorTemplateCommon.39" = type { %"class.llvm::SmallVectorBase" }
%"class.llvm::IntervalMap" = type { %union.anon, i32, i32, ptr }
%union.anon = type { %"class.llvm::IntervalMapImpl::LeafNode" }
%"class.llvm::IntervalMapImpl::LeafNode" = type { %"class.llvm::IntervalMapImpl::NodeBase" }
%"class.llvm::IntervalMapImpl::NodeBase" = type { [8 x %"struct.std::pair"], [8 x i16] }
%"struct.std::pair" = type { i64, i64 }

; Function Attrs: mustprogress nounwind uwtable
define linkonce_odr hidden void @_ZNSt10_Head_baseILm1ESt14default_deleteIN4llvm3pdb9PDBSymbolEELb1EEC2Ev(ptr noundef nonnull align 1 dereferenceable(1) %0) unnamed_addr #0 comdat align 2 {
  %2 = alloca ptr, align 8
  store ptr %0, ptr %2, align 8
  ret void
}

; Function Attrs: mustprogress nounwind uwtable
define linkonce_odr hidden void @_ZNSt10_Head_baseILm0EPN4llvm3pdb9PDBSymbolELb0EEC2Ev(ptr noundef nonnull align 8 dereferenceable(8) %0) unnamed_addr #0 comdat align 2 {
  %2 = alloca ptr, align 8
  store ptr %0, ptr %2, align 8
  %3 = load ptr, ptr %2, align 8
  %4 = getelementptr inbounds nuw %"struct.std::_Head_base.49", ptr %3, i32 0, i32 0
  store ptr null, ptr %4, align 8
  ret void
}

; Function Attrs: mustprogress nounwind uwtable
define linkonce_odr hidden void @_ZNSt11_Tuple_implILm1EJSt14default_deleteIN4llvm3pdb9PDBSymbolEEEEC2Ev(ptr noundef nonnull align 1 dereferenceable(1) %0) unnamed_addr #0 comdat align 2 {
  %2 = alloca ptr, align 8
  store ptr %0, ptr %2, align 8
  %3 = load ptr, ptr %2, align 8
  call void @_ZNSt10_Head_baseILm1ESt14default_deleteIN4llvm3pdb9PDBSymbolEELb1EEC2Ev(ptr noundef nonnull align 1 dereferenceable(1) %3)
  ret void
}

; Function Attrs: mustprogress nounwind uwtable
define linkonce_odr hidden void @_ZNSt11_Tuple_implILm0EJPN4llvm3pdb9PDBSymbolESt14default_deleteIS2_EEEC2Ev(ptr noundef nonnull align 8 dereferenceable(8) %0) unnamed_addr #0 comdat align 2 {
  %2 = alloca ptr, align 8
  store ptr %0, ptr %2, align 8
  %3 = load ptr, ptr %2, align 8
  call void @_ZNSt11_Tuple_implILm1EJSt14default_deleteIN4llvm3pdb9PDBSymbolEEEEC2Ev(ptr noundef nonnull align 1 dereferenceable(1) %3)
  call void @_ZNSt10_Head_baseILm0EPN4llvm3pdb9PDBSymbolELb0EEC2Ev(ptr noundef nonnull align 8 dereferenceable(8) %3)
  ret void
}

; Function Attrs: mustprogress nounwind uwtable
define linkonce_odr hidden void @_ZNSt5tupleIJPN4llvm3pdb9PDBSymbolESt14default_deleteIS2_EEEC2ILb1ETnNSt9enable_ifIXclsr17_TupleConstraintsIXT_ES3_S5_EE37__is_implicitly_default_constructibleEEbE4typeELb1EEEv(ptr noundef nonnull align 8 dereferenceable(8) %0) unnamed_addr #0 comdat align 2 {
  %2 = alloca ptr, align 8
  store ptr %0, ptr %2, align 8
  %3 = load ptr, ptr %2, align 8
  call void @_ZNSt11_Tuple_implILm0EJPN4llvm3pdb9PDBSymbolESt14default_deleteIS2_EEEC2Ev(ptr noundef nonnull align 8 dereferenceable(8) %3)
  ret void
}

; Function Attrs: mustprogress nounwind uwtable
define linkonce_odr hidden void @_ZNSt15__uniq_ptr_implIN4llvm3pdb9PDBSymbolESt14default_deleteIS2_EEC2Ev(ptr noundef nonnull align 8 dereferenceable(8) %0) unnamed_addr #0 comdat align 2 {
  %2 = alloca ptr, align 8
  store ptr %0, ptr %2, align 8
  %3 = load ptr, ptr %2, align 8
  %4 = getelementptr inbounds nuw %"class.std::__uniq_ptr_impl.44", ptr %3, i32 0, i32 0
  call void @_ZNSt5tupleIJPN4llvm3pdb9PDBSymbolESt14default_deleteIS2_EEEC2ILb1ETnNSt9enable_ifIXclsr17_TupleConstraintsIXT_ES3_S5_EE37__is_implicitly_default_constructibleEEbE4typeELb1EEEv(ptr noundef nonnull align 8 dereferenceable(8) %4) #5
  ret void
}

; Function Attrs: mustprogress nounwind uwtable
define linkonce_odr hidden void @_ZNSt15__uniq_ptr_dataIN4llvm3pdb9PDBSymbolESt14default_deleteIS2_ELb1ELb1EEC2Ev(ptr noundef nonnull align 8 dereferenceable(8) %0) unnamed_addr #0 comdat align 2 {
  %2 = alloca ptr, align 8
  store ptr %0, ptr %2, align 8
  %3 = load ptr, ptr %2, align 8
  call void @_ZNSt15__uniq_ptr_implIN4llvm3pdb9PDBSymbolESt14default_deleteIS2_EEC2Ev(ptr noundef nonnull align 8 dereferenceable(8) %3) #5
  ret void
}

; Function Attrs: mustprogress nounwind uwtable
define linkonce_odr hidden void @_ZNSt10unique_ptrIN4llvm3pdb9PDBSymbolESt14default_deleteIS2_EEC2IS4_vEEDn(ptr noundef nonnull align 8 dereferenceable(8) %0, ptr %1) unnamed_addr #0 comdat align 2 {
  %3 = alloca ptr, align 8
  %4 = alloca ptr, align 8
  store ptr %0, ptr %3, align 8
  store ptr %1, ptr %4, align 8
  %5 = load ptr, ptr %3, align 8
  %6 = getelementptr inbounds nuw %"class.std::unique_ptr.42", ptr %5, i32 0, i32 0
  call void @llvm.memset.p0.i64(ptr align 8 %6, i8 0, i64 8, i1 false)
  call void @_ZNSt15__uniq_ptr_dataIN4llvm3pdb9PDBSymbolESt14default_deleteIS2_ELb1ELb1EEC2Ev(ptr noundef nonnull align 8 dereferenceable(8) %6) #5
  ret void
}

; Function Attrs: mustprogress nounwind uwtable
define linkonce_odr hidden noundef nonnull align 4 dereferenceable(4) ptr @_ZNKSt6vectorIjSaIjEEixEm(ptr noundef nonnull align 8 dereferenceable(24) %0, i64 noundef %1) #0 comdat align 2 {
  %3 = alloca ptr, align 8
  %4 = alloca i64, align 8
  store ptr %0, ptr %3, align 8
  store i64 %1, ptr %4, align 8
  %5 = load ptr, ptr %3, align 8
  %6 = getelementptr inbounds nuw %"struct.std::_Vector_base", ptr %5, i32 0, i32 0
  %7 = getelementptr inbounds nuw %"struct.std::_Vector_base<unsigned int, std::allocator<unsigned int>>::_Vector_impl_data", ptr %6, i32 0, i32 0
  %8 = load ptr, ptr %7, align 8
  %9 = load i64, ptr %4, align 8
  %10 = getelementptr inbounds i32, ptr %8, i64 %9
  ret ptr %10
}

; Function Attrs: mustprogress nounwind uwtable
define linkonce_odr hidden noundef nonnull align 8 dereferenceable(280) ptr @_ZN4llvm3pdb13NativeSession14getSymbolCacheEv(ptr noundef nonnull align 8 dereferenceable(584) %0) #0 comdat align 2 {
  %2 = alloca ptr, align 8
  store ptr %0, ptr %2, align 8
  %3 = load ptr, ptr %2, align 8
  %4 = getelementptr inbounds nuw %"class.llvm::pdb::NativeSession", ptr %3, i32 0, i32 3
  ret ptr %4
}

; Function Attrs: mustprogress nounwind uwtable
define linkonce_odr hidden noundef i64 @_ZNKSt6vectorIjSaIjEE4sizeEv(ptr noundef nonnull align 8 dereferenceable(24) %0) #0 comdat align 2 {
  %2 = alloca ptr, align 8
  store ptr %0, ptr %2, align 8
  %3 = load ptr, ptr %2, align 8
  %4 = getelementptr inbounds nuw %"struct.std::_Vector_base", ptr %3, i32 0, i32 0
  %5 = getelementptr inbounds nuw %"struct.std::_Vector_base<unsigned int, std::allocator<unsigned int>>::_Vector_impl_data", ptr %4, i32 0, i32 1
  %6 = load ptr, ptr %5, align 8
  %7 = getelementptr inbounds nuw %"struct.std::_Vector_base", ptr %3, i32 0, i32 0
  %8 = getelementptr inbounds nuw %"struct.std::_Vector_base<unsigned int, std::allocator<unsigned int>>::_Vector_impl_data", ptr %7, i32 0, i32 0
  %9 = load ptr, ptr %8, align 8
  %10 = ptrtoint ptr %6 to i64
  %11 = ptrtoint ptr %9 to i64
  %12 = sub i64 %10, %11
  %13 = sdiv exact i64 %12, 4
  ret i64 %13
}

; Function Attrs: mustprogress nounwind uwtable
define dso_local void @_ZNK4llvm3pdb17NativeEnumSymbols15getChildAtIndexEj(ptr dead_on_unwind noalias writable sret(%"class.std::unique_ptr.42") align 8 %0, ptr noundef nonnull align 8 dereferenceable(48) %1, i32 noundef %2) unnamed_addr #0 align 2 {
  %4 = alloca ptr, align 8
  %5 = alloca ptr, align 8
  %6 = alloca i32, align 4
  store ptr %0, ptr %4, align 8
  store ptr %1, ptr %5, align 8
  store i32 %2, ptr %6, align 4
  %7 = load ptr, ptr %5, align 8
  %8 = load i32, ptr %6, align 4
  %9 = zext i32 %8 to i64
  %10 = getelementptr inbounds nuw %"class.llvm::pdb::NativeEnumSymbols", ptr %7, i32 0, i32 1
  %11 = call noundef i64 @_ZNKSt6vectorIjSaIjEE4sizeEv(ptr noundef nonnull align 8 dereferenceable(24) %10) #5
  %12 = icmp ult i64 %9, %11
  br i1 %12, label %13, label %22

13:                                               ; preds = %3
  %14 = getelementptr inbounds nuw %"class.llvm::pdb::NativeEnumSymbols", ptr %7, i32 0, i32 3
  %15 = load ptr, ptr %14, align 8
  %16 = call noundef nonnull align 8 dereferenceable(280) ptr @_ZN4llvm3pdb13NativeSession14getSymbolCacheEv(ptr noundef nonnull align 8 dereferenceable(584) %15)
  %17 = getelementptr inbounds nuw %"class.llvm::pdb::NativeEnumSymbols", ptr %7, i32 0, i32 1
  %18 = load i32, ptr %6, align 4
  %19 = zext i32 %18 to i64
  %20 = call noundef nonnull align 4 dereferenceable(4) ptr @_ZNKSt6vectorIjSaIjEEixEm(ptr noundef nonnull align 8 dereferenceable(24) %17, i64 noundef %19) #5
  %21 = load i32, ptr %20, align 4
  call void @_ZNK4llvm3pdb11SymbolCache13getSymbolByIdEj(ptr dead_on_unwind writable sret(%"class.std::unique_ptr.42") align 8 %0, ptr noundef nonnull align 8 dereferenceable(280) %16, i32 noundef %21)
  br label %23

22:                                               ; preds = %3
  call void @_ZNSt10unique_ptrIN4llvm3pdb9PDBSymbolESt14default_deleteIS2_EEC2IS4_vEEDn(ptr noundef nonnull align 8 dereferenceable(8) %0, ptr null) #5
  br label %23

23:                                               ; preds = %22, %13
  ret void
}