; Function Attrs: mustprogress nounwind uwtable
define dso_local void @_ZNK4llvm3pdb17NativeEnumSymbols15getChildAtIndexEj(ptr dead_on_unwind noalias writable sret(%"class.std::unique_ptr.42") align 8 %0, ptr noundef nonnull readonly align 8 captures(none) dereferenceable(48) %1, i32 noundef %2) unnamed_addr #2 align 2 {
  %4 = zext i32 %2 to i64
  %5 = getelementptr inbounds nuw i8, ptr %1, i64 8
  %6 = getelementptr inbounds nuw i8, ptr %1, i64 16
  %7 = load ptr, ptr %6, align 8
  %8 = load ptr, ptr %5, align 8
  %9 = ptrtoint ptr %7 to i64
  %10 = ptrtoint ptr %8 to i64
  %11 = sub i64 %9, %10
  %12 = ashr exact i64 %11, 2
  %13 = icmp ugt i64 %12, %4
  br i1 %13, label %14, label %20

14:                                               ; preds = %3
  %15 = getelementptr inbounds nuw i8, ptr %1, i64 40
  %16 = load ptr, ptr %15, align 8
  %17 = getelementptr inbounds nuw i8, ptr %16, i64 24
  %18 = getelementptr inbounds nuw i32, ptr %8, i64 %4
  %19 = load i32, ptr %18, align 4
  tail call void @_ZNK4llvm3pdb11SymbolCache13getSymbolByIdEj(ptr dead_on_unwind writable sret(%"class.std::unique_ptr.42") align 8 %0, ptr noundef nonnull align 8 dereferenceable(280) %17, i32 noundef %19) #7
  br label %21

20:                                               ; preds = %3
  store ptr null, ptr %0, align 8
  br label %21

21:                                               ; preds = %20, %14
  ret void
}